Certificate:
    Data:
        Version: 3 (0x2)
        Serial Number:
            be:4b:0e:70:57:0f:23:64:c3:4f:7b:e2:93:35:c1:02
    Signature Algorithm: sha256WithRSAEncryption
        Issuer: CN=server
        Validity
            Not Before: Sep 20 16:02:34 2020 GMT
            Not After : Dec 24 16:02:34 2022 GMT
        Subject: CN=client
        Subject Public Key Info:
            Public Key Algorithm: rsaEncryption
                Public-Key: (2048 bit)
                Modulus:
                    00:e5:b8:84:12:6b:10:41:86:4b:86:fb:bf:b8:ca:
                    3f:5c:07:ec:f2:fc:6c:4e:9c:9a:8d:b1:4a:65:2a:
                    d5:80:d1:fe:02:28:c4:fd:51:41:a1:34:f8:80:6f:
                    d6:de:dd:66:1b:b4:c4:1f:66:20:d7:49:c2:93:6e:
                    71:1b:c0:70:ca:71:06:67:66:5d:6f:2a:59:81:a4:
                    69:d6:a3:82:29:45:6d:b6:01:63:de:f5:79:6d:42:
                    dc:8f:7e:3e:ea:2a:ee:69:48:80:91:59:61:87:05:
                    70:ba:6f:01:32:04:7a:91:0e:97:be:7e:7d:a6:97:
                    56:e4:1b:d1:f7:6c:33:dd:87:cf:e2:2d:2f:21:e1:
                    9e:fb:16:80:75:ed:04:e3:83:ae:47:c9:74:43:4b:
                    b7:7c:2f:32:32:93:9a:84:a1:54:21:c1:4b:56:33:
                    d2:22:bf:4d:1f:38:25:d8:e5:b1:e1:aa:8d:7a:25:
                    8a:1f:51:87:4f:e0:a5:12:23:9d:5b:84:82:fc:c2:
                    58:8b:11:40:c6:35:b0:d7:30:aa:91:14:b3:99:44:
                    1b:a8:45:75:5a:19:7f:51:31:bb:6a:65:07:62:61:
                    68:51:74:dd:b7:e0:e8:db:f6:30:33:a5:9a:55:6c:
                    da:25:95:95:14:28:0c:7d:ba:af:81:b0:f2:bc:e8:
                    fe:e1
                Exponent: 65537 (0x10001)
        X509v3 extensions:
            X509v3 Basic Constraints: 
                CA:FALSE
            X509v3 Subject Key Identifier: 
                71:EA:F6:FD:23:8C:03:DB:80:A3:35:21:52:35:38:76:6D:C5:95:5B
            X509v3 Authority Key Identifier: 
                keyid:3D:29:40:6E:0D:7B:7A:CE:D6:AE:87:38:24:C4:6E:AD:AE:F6:ED:DE
                DirName:/CN=server
                serial:B3:1B:7F:48:5F:A8:28:8D

            X509v3 Extended Key Usage: 
                TLS Web Client Authentication
            X509v3 Key Usage: 
                Digital Signature
    Signature Algorithm: sha256WithRSAEncryption
         b1:66:b1:c9:06:f6:ca:b0:6a:75:1e:33:de:7c:13:30:bb:5c:
         09:20:ad:22:0a:bb:37:59:63:46:bc:c8:44:df:fb:a5:de:fc:
         23:82:b1:9c:f2:46:64:65:a8:14:94:a0:bf:d8:fe:cd:88:68:
         82:88:b1:52:60:d9:9c:80:32:23:3c:fc:ec:91:c1:e1:bd:5c:
         c6:37:35:eb:4b:65:8a:f6:7d:07:f7:03:29:04:cc:09:8a:de:
         7b:4d:eb:3b:3a:a4:61:55:87:b3:ea:46:ac:72:a0:45:38:e4:
         62:c2:42:24:cd:3f:5b:42:1b:96:0b:cd:a1:0e:e8:cc:97:5b:
         78:41:79:18:1f:5b:9f:1f:9a:3d:4c:e5:f7:c6:2b:a0:8f:76:
         5c:86:1f:31:0a:e3:2d:7b:bd:cf:e4:8e:28:12:ef:64:a1:c9:
         62:5e:aa:92:e5:0f:d8:3b:23:6f:6b:33:b2:dc:19:5e:d3:15:
         0c:25:5d:9f:90:f7:73:5f:98:b5:93:7b:aa:14:ca:52:43:0a:
         8e:29:ad:e9:81:fc:b6:38:ab:f2:1e:7e:d2:0c:76:bd:8c:ca:
         49:cc:de:9a:4e:9f:11:71:59:79:ea:13:18:0c:25:4a:86:47:
         7e:80:87:93:6c:f8:c5:0e:5b:d2:a6:85:04:4f:5c:8f:2d:0f:
         02:14:4f:b3
-----BEGIN CERTIFICATE-----
MIIDQDCCAiigAwIBAgIRAL5LDnBXDyNkw0974pM1wQIwDQYJKoZIhvcNAQELBQAw
ETEPMA0GA1UEAwwGc2VydmVyMB4XDTIwMDkyMDE2MDIzNFoXDTIyMTIyNDE2MDIz
NFowETEPMA0GA1UEAwwGY2xpZW50MIIBIjANBgkqhkiG9w0BAQEFAAOCAQ8AMIIB
CgKCAQEA5biEEmsQQYZLhvu/uMo/XAfs8vxsTpyajbFKZSrVgNH+AijE/VFBoTT4
gG/W3t1mG7TEH2Yg10nCk25xG8BwynEGZ2ZdbypZgaRp1qOCKUVttgFj3vV5bULc
j34+6iruaUiAkVlhhwVwum8BMgR6kQ6Xvn59ppdW5BvR92wz3YfP4i0vIeGe+xaA
de0E44OuR8l0Q0u3fC8yMpOahKFUIcFLVjPSIr9NHzgl2OWx4aqNeiWKH1GHT+Cl
EiOdW4SC/MJYixFAxjWw1zCqkRSzmUQbqEV1Whl/UTG7amUHYmFoUXTdt+Do2/Yw
M6WaVWzaJZWVFCgMfbqvgbDyvOj+4QIDAQABo4GSMIGPMAkGA1UdEwQCMAAwHQYD
VR0OBBYEFHHq9v0jjAPbgKM1IVI1OHZtxZVbMEEGA1UdIwQ6MDiAFD0pQG4Ne3rO
1q6HOCTEbq2u9u3eoRWkEzARMQ8wDQYDVQQDDAZzZXJ2ZXKCCQCzG39IX6gojTAT
BgNVHSUEDDAKBggrBgEFBQcDAjALBgNVHQ8EBAMCB4AwDQYJKoZIhvcNAQELBQAD
ggEBALFmsckG9sqwanUeM958EzC7XAkgrSIKuzdZY0a8yETf+6Xe/COCsZzyRmRl
qBSUoL/Y/s2IaIKIsVJg2ZyAMiM8/OyRweG9XMY3NetLZYr2fQf3AykEzAmK3ntN
6zs6pGFVh7PqRqxyoEU45GLCQiTNP1tCG5YLzaEO6MyXW3hBeRgfW58fmj1M5ffG
K6CPdlyGHzEK4y17vc/kjigS72ShyWJeqpLlD9g7I29rM7LcGV7TFQwlXZ+Q93Nf
mLWTe6oUylJDCo4premB/LY4q/IeftIMdr2MyknM3ppOnxFxWXnqExgMJUqGR36A
h5Ns+MUOW9KmhQRPXI8tDwIUT7M=
-----END CERTIFICATE-----
