Certificate:
    Data:
        Version: 3 (0x2)
        Serial Number:
            a8:f0:e6:e5:02:36:a3:d4:b9:47:22:ab:64:45:13:21
    Signature Algorithm: sha256WithRSAEncryption
        Issuer: CN=server
        Validity
            Not Before: Sep 20 15:39:21 2020 GMT
            Not After : Dec 24 15:39:21 2022 GMT
        Subject: CN=server
        Subject Public Key Info:
            Public Key Algorithm: rsaEncryption
                Public-Key: (2048 bit)
                Modulus:
                    00:cf:e2:5e:e8:79:ea:c5:42:4e:8a:27:c5:2a:13:
                    aa:9f:8d:be:35:e3:29:38:b4:93:df:d5:f1:46:83:
                    77:12:92:84:94:5f:35:d6:63:92:76:76:13:d4:b2:
                    59:33:1b:b8:0b:1e:5f:ad:de:ae:8d:d9:34:4e:39:
                    56:74:06:fd:05:23:c6:12:0a:94:e7:44:34:0b:e9:
                    42:c4:10:b3:0d:d9:95:78:31:b5:d5:c3:ba:14:66:
                    73:4f:a2:0c:c5:f3:a6:27:ae:26:bc:a3:df:b3:f6:
                    df:94:f3:5c:f8:6a:88:89:81:f7:f7:7e:6e:f2:f4:
                    64:a7:e8:a5:7e:3b:15:cb:51:f7:bf:e9:4e:75:30:
                    ce:f0:bd:68:ec:02:20:96:71:b2:76:5e:df:db:4b:
                    95:8d:18:78:6b:91:a3:75:d4:fb:a5:e5:5e:2b:7c:
                    16:76:2d:01:32:2d:58:82:d1:25:70:6f:43:ab:93:
                    fa:87:32:13:e4:71:14:fc:6f:60:05:4d:f8:3a:69:
                    f3:d7:39:31:af:55:87:e7:3e:2c:c0:db:f9:a3:c2:
                    22:70:80:f9:52:59:50:48:70:fd:2f:6c:01:2e:ed:
                    8c:f8:38:0e:77:e9:c9:a7:8c:b2:75:16:e1:9a:36:
                    b9:7d:38:e6:db:18:65:a7:49:b4:54:44:ca:4b:77:
                    28:eb
                Exponent: 65537 (0x10001)
        X509v3 extensions:
            X509v3 Basic Constraints: 
                CA:FALSE
            X509v3 Subject Key Identifier: 
                B4:88:10:7E:12:C0:46:9D:23:4C:D4:7F:DD:98:80:B1:F5:13:7A:46
            X509v3 Authority Key Identifier: 
                keyid:3D:29:40:6E:0D:7B:7A:CE:D6:AE:87:38:24:C4:6E:AD:AE:F6:ED:DE
                DirName:/CN=server
                serial:B3:1B:7F:48:5F:A8:28:8D

            X509v3 Extended Key Usage: 
                TLS Web Server Authentication
            X509v3 Key Usage: 
                Digital Signature, Key Encipherment
            X509v3 Subject Alternative Name: 
                DNS:server
    Signature Algorithm: sha256WithRSAEncryption
         5a:c2:79:51:7b:55:22:11:8f:e6:4d:fd:d3:1a:6b:02:73:27:
         a7:91:39:53:f8:2c:cd:29:a6:cf:0f:60:75:3f:0d:d0:d1:40:
         2c:7c:f1:ef:b0:6c:00:ea:7c:51:e5:b4:73:2d:6e:d0:50:88:
         41:c7:52:c2:64:67:01:04:a3:9c:7e:c7:04:94:85:a1:b5:df:
         51:85:cf:57:e0:31:67:8f:c7:fb:0f:9e:65:06:fa:95:5a:1d:
         ba:a2:db:c6:1e:9d:28:88:fa:ec:cf:f9:82:9f:47:07:18:f0:
         d9:e5:37:04:1b:a5:e9:9e:54:3f:a9:5a:3f:f3:18:07:93:f9:
         32:8e:92:40:c7:0a:7c:7d:94:ed:ce:80:13:43:89:03:11:9a:
         3d:1e:7c:3b:3b:d0:72:1c:66:5a:c6:3f:ad:a7:c9:c3:a6:a5:
         45:78:a5:d2:95:06:fe:64:cc:0d:a4:29:12:c4:79:6d:d6:54:
         ed:9c:55:d8:c9:d6:3a:15:41:d0:e5:b0:34:62:d3:41:d1:d2:
         25:f1:8a:ba:5d:50:33:76:a0:77:3d:e4:2f:7b:8b:7e:33:d0:
         89:d5:d5:91:f9:9d:f2:9b:5d:ba:62:1c:a7:9f:d9:c0:c0:8a:
         5a:ad:b5:dd:79:bd:67:a6:41:a7:8c:73:6a:a3:d2:66:96:0f:
         b3:35:42:99
-----BEGIN CERTIFICATE-----
MIIDUzCCAjugAwIBAgIRAKjw5uUCNqPUuUciq2RFEyEwDQYJKoZIhvcNAQELBQAw
ETEPMA0GA1UEAwwGc2VydmVyMB4XDTIwMDkyMDE1MzkyMVoXDTIyMTIyNDE1Mzky
MVowETEPMA0GA1UEAwwGc2VydmVyMIIBIjANBgkqhkiG9w0BAQEFAAOCAQ8AMIIB
CgKCAQEAz+Je6HnqxUJOiifFKhOqn42+NeMpOLST39XxRoN3EpKElF811mOSdnYT
1LJZMxu4Cx5frd6ujdk0TjlWdAb9BSPGEgqU50Q0C+lCxBCzDdmVeDG11cO6FGZz
T6IMxfOmJ64mvKPfs/bflPNc+GqIiYH3935u8vRkp+ilfjsVy1H3v+lOdTDO8L1o
7AIglnGydl7f20uVjRh4a5GjddT7peVeK3wWdi0BMi1YgtElcG9Dq5P6hzIT5HEU
/G9gBU34Omnz1zkxr1WH5z4swNv5o8IicID5UllQSHD9L2wBLu2M+DgOd+nJp4yy
dRbhmja5fTjm2xhlp0m0VETKS3co6wIDAQABo4GlMIGiMAkGA1UdEwQCMAAwHQYD
VR0OBBYEFLSIEH4SwEadI0zUf92YgLH1E3pGMEEGA1UdIwQ6MDiAFD0pQG4Ne3rO
1q6HOCTEbq2u9u3eoRWkEzARMQ8wDQYDVQQDDAZzZXJ2ZXKCCQCzG39IX6gojTAT
BgNVHSUEDDAKBggrBgEFBQcDATALBgNVHQ8EBAMCBaAwEQYDVR0RBAowCIIGc2Vy
dmVyMA0GCSqGSIb3DQEBCwUAA4IBAQBawnlRe1UiEY/mTf3TGmsCcyenkTlT+CzN
KabPD2B1Pw3Q0UAsfPHvsGwA6nxR5bRzLW7QUIhBx1LCZGcBBKOcfscElIWhtd9R
hc9X4DFnj8f7D55lBvqVWh26otvGHp0oiPrsz/mCn0cHGPDZ5TcEG6XpnlQ/qVo/
8xgHk/kyjpJAxwp8fZTtzoATQ4kDEZo9Hnw7O9ByHGZaxj+tp8nDpqVFeKXSlQb+
ZMwNpCkSxHlt1lTtnFXYydY6FUHQ5bA0YtNB0dIl8Yq6XVAzdqB3PeQve4t+M9CJ
1dWR+Z3ym126Yhynn9nAwIparbXdeb1npkGnjHNqo9Jmlg+zNUKZ
-----END CERTIFICATE-----
